; Function Attrs: mustprogress nofree nounwind willreturn memory(argmem: readwrite, inaccessiblemem: readwrite) uwtable
define dso_local ptr @onig_get_regex_ext(ptr noundef captures(none) %0) local_unnamed_addr #3 {
  %2 = getelementptr inbounds nuw i8, ptr %0, i64 448
  %3 = load ptr, ptr %2, align 8, !tbaa !8
  %4 = icmp eq ptr %3, null
  br i1 %4, label %5, label %7

5:                                                ; preds = %1
  %calloc = tail call dereferenceable_or_null(40) ptr @calloc(i64 1, i64 40)
  %6 = icmp eq ptr %calloc, null
  br i1 %6, label %7, label %.thread

.thread:                                          ; preds = %5
  store ptr %calloc, ptr %2, align 8, !tbaa !8
  br label %7

7:                                                ; preds = %1, %.thread, %5
  %.1 = phi ptr [ null, %5 ], [ %calloc, %.thread ], [ %3, %1 ]
  ret ptr %.1
}